target datalayout = "e-m:e-p270:32:32-p271:32:32-p272:64:64-i64:64-i128:128-f80:128-n8:16:32:64-S128"
target triple = "x86_64-pc-linux-gnu"

%struct.AVFilterContext = type { ptr, ptr, ptr, ptr, ptr, i32, ptr, ptr, i32, ptr, ptr, i32, i32, ptr, ptr, ptr, ptr, i32, ptr, i32, i32 }
%struct.PSNRContext = type { ptr, %struct.FFFrameSync, double, double, double, [4 x double], i64, ptr, ptr, i32, i32, i32, [4 x i32], i32, i32, [4 x i8], [4 x i8], i32, i32, [4 x i32], [4 x i32], [4 x double], ptr, %struct.PSNRDSPContext }
%struct.FFFrameSync = type { ptr, ptr, i32, %struct.AVRational, i64, ptr, ptr, i32, i32, i8, i8, ptr, i32, i32, i32, i32 }
%struct.AVRational = type { i32, i32 }
%struct.PSNRDSPContext = type { ptr }

@.str.16 = private unnamed_addr constant [52 x i8] c"stats_add_max was specified but stats_version < 2.\0A\00", align 1
@.str.17 = private unnamed_addr constant [2 x i8] c"-\00", align 1
@stdout = external global ptr, align 8
@.str.18 = private unnamed_addr constant [2 x i8] c"w\00", align 1
@.str.19 = private unnamed_addr constant [34 x i8] c"Could not open stats file %s: %s\0A\00", align 1

; Function Attrs: inlinehint nounwind uwtable
define internal ptr @av_make_error_string(ptr noundef %0, i64 noundef %1, i32 noundef %2) #7 {
  %4 = alloca ptr, align 8
  %5 = alloca i64, align 8
  %6 = alloca i32, align 4
  store ptr %0, ptr %4, align 8, !tbaa !90
  store i64 %1, ptr %5, align 8, !tbaa !88
  store i32 %2, ptr %6, align 4, !tbaa !40
  %7 = load i32, ptr %6, align 4, !tbaa !40
  %8 = load ptr, ptr %4, align 8, !tbaa !90
  %9 = load i64, ptr %5, align 8, !tbaa !88
  %10 = call i32 @av_strerror(i32 noundef %7, ptr noundef %8, i64 noundef %9)
  %11 = load ptr, ptr %4, align 8, !tbaa !90
  ret ptr %11
}

; Function Attrs: cold nounwind optsize uwtable
define internal i32 @init(ptr noundef %0) #1 {
  %2 = alloca i32, align 4
  %3 = alloca ptr, align 8
  %4 = alloca ptr, align 8
  %5 = alloca i32, align 4
  %6 = alloca i32, align 4
  %7 = alloca [64 x i8], align 1
  store ptr %0, ptr %3, align 8, !tbaa !4
  call void @llvm.lifetime.start.p0(i64 8, ptr %4) #12
  %8 = load ptr, ptr %3, align 8, !tbaa !4
  %9 = getelementptr inbounds nuw %struct.AVFilterContext, ptr %8, i32 0, i32 9
  %10 = load ptr, ptr %9, align 8, !tbaa !9
  store ptr %10, ptr %4, align 8, !tbaa !22
  %11 = load ptr, ptr %4, align 8, !tbaa !22
  %12 = getelementptr inbounds nuw %struct.PSNRContext, ptr %11, i32 0, i32 3
  store double 0x7FF0000000000000, ptr %12, align 8, !tbaa !24
  %13 = load ptr, ptr %4, align 8, !tbaa !22
  %14 = getelementptr inbounds nuw %struct.PSNRContext, ptr %13, i32 0, i32 4
  store double 0xFFF0000000000000, ptr %14, align 8, !tbaa !34
  %15 = load ptr, ptr %4, align 8, !tbaa !22
  %16 = getelementptr inbounds nuw %struct.PSNRContext, ptr %15, i32 0, i32 8
  %17 = load ptr, ptr %16, align 8, !tbaa !35
  %18 = icmp ne ptr %17, null
  br i1 %18, label %19, label %66

19:                                               ; preds = %1
  %20 = load ptr, ptr %4, align 8, !tbaa !22
  %21 = getelementptr inbounds nuw %struct.PSNRContext, ptr %20, i32 0, i32 9
  %22 = load i32, ptr %21, align 8, !tbaa !36
  %23 = icmp slt i32 %22, 2
  br i1 %23, label %24, label %31

24:                                               ; preds = %19
  %25 = load ptr, ptr %4, align 8, !tbaa !22
  %26 = getelementptr inbounds nuw %struct.PSNRContext, ptr %25, i32 0, i32 11
  %27 = load i32, ptr %26, align 8, !tbaa !37
  %28 = icmp ne i32 %27, 0
  br i1 %28, label %29, label %31

29:                                               ; preds = %24
  %30 = load ptr, ptr %3, align 8, !tbaa !4
  call void (ptr, i32, ptr, ...) @av_log(ptr noundef %30, i32 noundef 16, ptr noundef @.str.16)
  store i32 -22, ptr %2, align 4
  store i32 1, ptr %5, align 4
  br label %70

31:                                               ; preds = %24, %19
  %32 = load ptr, ptr %4, align 8, !tbaa !22
  %33 = getelementptr inbounds nuw %struct.PSNRContext, ptr %32, i32 0, i32 8
  %34 = load ptr, ptr %33, align 8, !tbaa !35
  %35 = call i32 @strcmp(ptr noundef %34, ptr noundef @.str.17) #13
  %36 = icmp ne i32 %35, 0
  br i1 %36, label %41, label %37

37:                                               ; preds = %31
  %38 = load ptr, ptr @stdout, align 8, !tbaa !38
  %39 = load ptr, ptr %4, align 8, !tbaa !22
  %40 = getelementptr inbounds nuw %struct.PSNRContext, ptr %39, i32 0, i32 7
  store ptr %38, ptr %40, align 8, !tbaa !39
  br label %65

41:                                               ; preds = %31
  %42 = load ptr, ptr %4, align 8, !tbaa !22
  %43 = getelementptr inbounds nuw %struct.PSNRContext, ptr %42, i32 0, i32 8
  %44 = load ptr, ptr %43, align 8, !tbaa !35
  %45 = call ptr @avpriv_fopen_utf8(ptr noundef %44, ptr noundef @.str.18)
  %46 = load ptr, ptr %4, align 8, !tbaa !22
  %47 = getelementptr inbounds nuw %struct.PSNRContext, ptr %46, i32 0, i32 7
  store ptr %45, ptr %47, align 8, !tbaa !39
  %48 = load ptr, ptr %4, align 8, !tbaa !22
  %49 = getelementptr inbounds nuw %struct.PSNRContext, ptr %48, i32 0, i32 7
  %50 = load ptr, ptr %49, align 8, !tbaa !39
  %51 = icmp ne ptr %50, null
  br i1 %51, label %64, label %52

52:                                               ; preds = %41
  call void @llvm.lifetime.start.p0(i64 4, ptr %6) #12
  %53 = call ptr @__errno_location() #14
  %54 = load i32, ptr %53, align 4, !tbaa !40
  %55 = sub nsw i32 0, %54
  store i32 %55, ptr %6, align 4, !tbaa !40
  %56 = load ptr, ptr %3, align 8, !tbaa !4
  %57 = load ptr, ptr %4, align 8, !tbaa !22
  %58 = getelementptr inbounds nuw %struct.PSNRContext, ptr %57, i32 0, i32 8
  %59 = load ptr, ptr %58, align 8, !tbaa !35
  call void @llvm.memset.p0.i64(ptr align 1 %7, i8 0, i64 64, i1 false)
  %60 = getelementptr inbounds [64 x i8], ptr %7, i64 0, i64 0
  %61 = load i32, ptr %6, align 4, !tbaa !40
  %62 = call ptr @av_make_error_string(ptr noundef %60, i64 noundef 64, i32 noundef %61)
  call void (ptr, i32, ptr, ...) @av_log(ptr noundef %56, i32 noundef 16, ptr noundef @.str.19, ptr noundef %59, ptr noundef %62)
  %63 = load i32, ptr %6, align 4, !tbaa !40
  store i32 %63, ptr %2, align 4
  store i32 1, ptr %5, align 4
  call void @llvm.lifetime.end.p0(i64 4, ptr %6) #12
  br label %70

64:                                               ; preds = %41
  br label %65

65:                                               ; preds = %64, %37
  br label %66

66:                                               ; preds = %65, %1
  %67 = load ptr, ptr %4, align 8, !tbaa !22
  %68 = getelementptr inbounds nuw %struct.PSNRContext, ptr %67, i32 0, i32 1
  %69 = getelementptr inbounds nuw %struct.FFFrameSync, ptr %68, i32 0, i32 5
  store ptr @do_psnr, ptr %69, align 8, !tbaa !41
  store i32 0, ptr %2, align 4
  store i32 1, ptr %5, align 4
  br label %70

70:                                               ; preds = %66, %52, %29
  call void @llvm.lifetime.end.p0(i64 8, ptr %4) #12
  %71 = load i32, ptr %2, align 4
  ret i32 %71
}