; Function Attrs: cold nounwind optsize uwtable
define internal range(i32 -2147483647, -2147483648) i32 @init(ptr noundef %0) #1 {
  %2 = alloca [64 x i8], align 1
  %3 = getelementptr inbounds nuw i8, ptr %0, i64 72
  %4 = load ptr, ptr %3, align 8, !tbaa !4
  %5 = getelementptr inbounds nuw i8, ptr %4, i64 112
  store double 0x7FF0000000000000, ptr %5, align 8, !tbaa !20
  %6 = getelementptr inbounds nuw i8, ptr %4, i64 120
  store double 0xFFF0000000000000, ptr %6, align 8, !tbaa !31
  %7 = getelementptr inbounds nuw i8, ptr %4, i64 176
  %8 = load ptr, ptr %7, align 8, !tbaa !32
  %.not = icmp eq ptr %8, null
  br i1 %.not, label %32, label %9

9:                                                ; preds = %1
  %10 = getelementptr inbounds nuw i8, ptr %4, i64 184
  %11 = load i32, ptr %10, align 8, !tbaa !33
  %12 = icmp slt i32 %11, 2
  br i1 %12, label %13, label %sub_0

13:                                               ; preds = %9
  %14 = getelementptr inbounds nuw i8, ptr %4, i64 192
  %15 = load i32, ptr %14, align 8, !tbaa !34
  %.not17 = icmp eq i32 %15, 0
  br i1 %.not17, label %sub_0, label %16

16:                                               ; preds = %13
  tail call void (ptr, i32, ptr, ...) @av_log(ptr noundef nonnull %0, i32 noundef 16, ptr noundef nonnull @.str.16) #12
  br label %34

sub_0:                                            ; preds = %9, %13
  %17 = load i8, ptr %8, align 1
  %.not20 = icmp eq i8 %17, 45
  br i1 %.not20, label %.tail, label %.tail.thread

.tail:                                            ; preds = %sub_0
  %18 = getelementptr inbounds nuw i8, ptr %8, i64 1
  %19 = load i8, ptr %18, align 1
  %20 = icmp eq i8 %19, 0
  br i1 %20, label %21, label %.tail.thread

21:                                               ; preds = %.tail
  %22 = load ptr, ptr @stdout, align 8, !tbaa !35
  %23 = getelementptr inbounds nuw i8, ptr %4, i64 168
  store ptr %22, ptr %23, align 8, !tbaa !36
  br label %32

.tail.thread:                                     ; preds = %sub_0, %.tail
  %24 = tail call ptr @avpriv_fopen_utf8(ptr noundef nonnull %8, ptr noundef nonnull @.str.18) #12
  %25 = getelementptr inbounds nuw i8, ptr %4, i64 168
  store ptr %24, ptr %25, align 8, !tbaa !36
  %.not19 = icmp eq ptr %24, null
  br i1 %.not19, label %26, label %32

26:                                               ; preds = %.tail.thread
  %27 = tail call ptr @__errno_location() #13
  %28 = load i32, ptr %27, align 4, !tbaa !37
  %29 = sub nsw i32 0, %28
  %30 = load ptr, ptr %7, align 8, !tbaa !32
  call void @llvm.memset.p0.i64(ptr noundef nonnull align 1 dereferenceable(64) %2, i8 0, i64 64, i1 false)
  %31 = call i32 @av_strerror(i32 noundef range(i32 -2147483647, -2147483648) %29, ptr noundef nonnull %2, i64 noundef 64) #12
  call void (ptr, i32, ptr, ...) @av_log(ptr noundef nonnull %0, i32 noundef 16, ptr noundef nonnull @.str.19, ptr noundef %30, ptr noundef nonnull %2) #12
  br label %34

32:                                               ; preds = %21, %.tail.thread, %1
  %33 = getelementptr inbounds nuw i8, ptr %4, i64 48
  store ptr @do_psnr, ptr %33, align 8, !tbaa !38
  br label %34

34:                                               ; preds = %32, %26, %16
  %.0 = phi i32 [ -22, %16 ], [ 0, %32 ], [ %29, %26 ]
  ret i32 %.0
}